; Function Attrs: mustprogress uwtable
define void @_ZN21grpc_alts_credentialsC2EPK29grpc_alts_credentials_optionsPKc(ptr nocapture noundef nonnull align 8 dereferenceable(32) %this, ptr noundef %options, ptr noundef %handshaker_service_url) unnamed_addr #3 align 2 personality ptr @__gxx_personality_v0 {
entry:
  %refs_.i.i = getelementptr inbounds i8, ptr %this, i64 8
  store i64 1, ptr %refs_.i.i, align 8
  store ptr getelementptr inbounds ({ [9 x ptr] }, ptr @_ZTV21grpc_alts_credentials, i64 0, i32 0, i64 2), ptr %this, align 8
  %options_ = getelementptr inbounds i8, ptr %this, i64 16
  %call = tail call noundef ptr @_Z34grpc_alts_credentials_options_copyPK29grpc_alts_credentials_options(ptr noundef %options)
  store ptr %call, ptr %options_, align 8
  %cmp = icmp eq ptr %handshaker_service_url, null
  %.str.handshaker_service_url = select i1 %cmp, ptr @.str, ptr %handshaker_service_url
  %call3 = tail call ptr @gpr_strdup(ptr noundef nonnull %.str.handshaker_service_url)
  %handshaker_service_url_ = getelementptr inbounds i8, ptr %this, i64 24
  store ptr %call3, ptr %handshaker_service_url_, align 8
  %0 = load ptr, ptr %options_, align 8
  %rpc_versions = getelementptr inbounds i8, ptr %0, i64 8
  tail call void @_Z35grpc_alts_set_rpc_protocol_versionsP29_grpc_gcp_RpcProtocolVersions(ptr noundef nonnull %rpc_versions)
  ret void
}